; ModuleID = '26/493.cpp'
source_filename = "26/493.cpp"
target datalayout = "e-m:e-p270:32:32-p271:32:32-p272:64:64-i64:64-f80:128-n8:16:32:64-S128"
target triple = "x86_64-pc-linux-gnu"

%"class.std::ios_base::Init" = type { i8 }
%"class.std::basic_istream" = type { i32 (...)**, i64, %"class.std::basic_ios" }
%"class.std::basic_ios" = type { %"class.std::ios_base", %"class.std::basic_ostream"*, i8, i8, %"class.std::basic_streambuf"*, %"class.std::ctype"*, %"class.std::num_put"*, %"class.std::num_get"* }
%"class.std::ios_base" = type { i32 (...)**, i64, i64, i32, i32, i32, %"struct.std::ios_base::_Callback_list"*, %"struct.std::ios_base::_Words", [8 x %"struct.std::ios_base::_Words"], i32, %"struct.std::ios_base::_Words"*, %"class.std::locale" }
%"struct.std::ios_base::_Callback_list" = type { %"struct.std::ios_base::_Callback_list"*, void (i32, %"class.std::ios_base"*, i32)*, i32, i32 }
%"struct.std::ios_base::_Words" = type { i8*, i64 }
%"class.std::locale" = type { %"class.std::locale::_Impl"* }
%"class.std::locale::_Impl" = type { i32, %"class.std::locale::facet"**, i64, %"class.std::locale::facet"**, i8** }
%"class.std::locale::facet" = type <{ i32 (...)**, i32, [4 x i8] }>
%"class.std::basic_ostream" = type { i32 (...)**, %"class.std::basic_ios" }
%"class.std::basic_streambuf" = type { i32 (...)**, i8*, i8*, i8*, i8*, i8*, i8*, %"class.std::locale" }
%"class.std::ctype" = type <{ %"class.std::locale::facet.base", [4 x i8], %struct.__locale_struct*, i8, [7 x i8], i32*, i32*, i16*, i8, [256 x i8], [256 x i8], i8, [6 x i8] }>
%"class.std::locale::facet.base" = type <{ i32 (...)**, i32 }>
%struct.__locale_struct = type { [13 x %struct.__locale_data*], i16*, i32*, i32*, [13 x i8*] }
%struct.__locale_data = type opaque
%"class.std::num_put" = type { %"class.std::locale::facet.base", [4 x i8] }
%"class.std::num_get" = type { %"class.std::locale::facet.base", [4 x i8] }

@_ZStL8__ioinit = internal global %"class.std::ios_base::Init" zeroinitializer, align 1
@__dso_handle = external hidden global i8
@_ZSt3cin = external dso_local global %"class.std::basic_istream", align 8
@_ZSt4cout = external dso_local global %"class.std::basic_ostream", align 8
@llvm.global_ctors = appending global [1 x { i32, void ()*, i8* }] [{ i32, void ()*, i8* } { i32 65535, void ()* @_GLOBAL__sub_I_493.cpp, i8* null }]

; Function Attrs: noinline uwtable
define internal void @__cxx_global_var_init() #0 section ".text.startup" {
  call void @_ZNSt8ios_base4InitC1Ev(%"class.std::ios_base::Init"* @_ZStL8__ioinit)
  %1 = call i32 @__cxa_atexit(void (i8*)* bitcast (void (%"class.std::ios_base::Init"*)* @_ZNSt8ios_base4InitD1Ev to void (i8*)*), i8* getelementptr inbounds (%"class.std::ios_base::Init", %"class.std::ios_base::Init"* @_ZStL8__ioinit, i32 0, i32 0), i8* @__dso_handle) #3
  ret void
}

declare dso_local void @_ZNSt8ios_base4InitC1Ev(%"class.std::ios_base::Init"*) unnamed_addr #1

; Function Attrs: nounwind
declare dso_local void @_ZNSt8ios_base4InitD1Ev(%"class.std::ios_base::Init"*) unnamed_addr #2

; Function Attrs: nounwind
declare dso_local i32 @__cxa_atexit(void (i8*)*, i8*, i8*) #3

; Function Attrs: noinline norecurse uwtable
define dso_local i32 @main() #4 {
  %1 = alloca i32, align 4
  %2 = alloca [200 x i8], align 16
  %3 = alloca i32, align 4
  %4 = alloca i32, align 4
  %5 = alloca i32, align 4
  store i32 0, i32* %1, align 4
  %6 = getelementptr inbounds [200 x i8], [200 x i8]* %2, i64 0, i64 0
  %7 = call dereferenceable(280) %"class.std::basic_istream"* @_ZNSi7getlineEPcl(%"class.std::basic_istream"* @_ZSt3cin, i8* %6, i64 200)
  store i32 0, i32* %5, align 4
  %8 = getelementptr inbounds [200 x i8], [200 x i8]* %2, i64 0, i64 0
  %9 = call i64 @strlen(i8* %8) #6
  %10 = trunc i64 %9 to i32
  store i32 %10, i32* %3, align 4
  store i32 0, i32* %4, align 4
  br label %11

11:                                               ; preds = %44, %0
  %12 = load i32, i32* %4, align 4
  %13 = load i32, i32* %3, align 4
  %14 = icmp slt i32 %12, %13
  br i1 %14, label %15, label %47

15:                                               ; preds = %11
  %16 = load i32, i32* %5, align 4
  %17 = icmp eq i32 %16, 0
  br i1 %17, label %18, label %32

18:                                               ; preds = %15
  %19 = load i32, i32* %4, align 4
  %20 = sext i32 %19 to i64
  %21 = getelementptr inbounds [200 x i8], [200 x i8]* %2, i64 0, i64 %20
  %22 = load i8, i8* %21, align 1
  %23 = call dereferenceable(272) %"class.std::basic_ostream"* @_ZStlsISt11char_traitsIcEERSt13basic_ostreamIcT_ES5_c(%"class.std::basic_ostream"* dereferenceable(272) @_ZSt4cout, i8 signext %22)
  %24 = load i32, i32* %4, align 4
  %25 = sext i32 %24 to i64
  %26 = getelementptr inbounds [200 x i8], [200 x i8]* %2, i64 0, i64 %25
  %27 = load i8, i8* %26, align 1
  %28 = sext i8 %27 to i32
  %29 = icmp eq i32 %28, 32
  br i1 %29, label %30, label %31

30:                                               ; preds = %18
  store i32 1, i32* %5, align 4
  br label %31

31:                                               ; preds = %30, %18
  br label %43

32:                                               ; preds = %15
  %33 = load i32, i32* %4, align 4
  %34 = sext i32 %33 to i64
  %35 = getelementptr inbounds [200 x i8], [200 x i8]* %2, i64 0, i64 %34
  %36 = load i8, i8* %35, align 1
  %37 = sext i8 %36 to i32
  %38 = icmp ne i32 %37, 32
  br i1 %38, label %39, label %42

39:                                               ; preds = %32
  store i32 0, i32* %5, align 4
  %40 = load i32, i32* %4, align 4
  %41 = add nsw i32 %40, -1
  store i32 %41, i32* %4, align 4
  br label %42

42:                                               ; preds = %39, %32
  br label %43

43:                                               ; preds = %42, %31
  br label %44

44:                                               ; preds = %43
  %45 = load i32, i32* %4, align 4
  %46 = add nsw i32 %45, 1
  store i32 %46, i32* %4, align 4
  br label %11

47:                                               ; preds = %11
  %48 = call dereferenceable(272) %"class.std::basic_ostream"* @_ZNSolsEPFRSoS_E(%"class.std::basic_ostream"* @_ZSt4cout, %"class.std::basic_ostream"* (%"class.std::basic_ostream"*)* @_ZSt4endlIcSt11char_traitsIcEERSt13basic_ostreamIT_T0_ES6_)
  %49 = load i32, i32* %1, align 4
  ret i32 %49
}

declare dso_local dereferenceable(280) %"class.std::basic_istream"* @_ZNSi7getlineEPcl(%"class.std::basic_istream"*, i8*, i64) #1

; Function Attrs: nounwind readonly
declare dso_local i64 @strlen(i8*) #5

declare dso_local dereferenceable(272) %"class.std::basic_ostream"* @_ZStlsISt11char_traitsIcEERSt13basic_ostreamIcT_ES5_c(%"class.std::basic_ostream"* dereferenceable(272), i8 signext) #1

declare dso_local dereferenceable(272) %"class.std::basic_ostream"* @_ZNSolsEPFRSoS_E(%"class.std::basic_ostream"*, %"class.std::basic_ostream"* (%"class.std::basic_ostream"*)*) #1

declare dso_local dereferenceable(272) %"class.std::basic_ostream"* @_ZSt4endlIcSt11char_traitsIcEERSt13basic_ostreamIT_T0_ES6_(%"class.std::basic_ostream"* dereferenceable(272)) #1

; Function Attrs: noinline uwtable
define internal void @_GLOBAL__sub_I_493.cpp() #0 section ".text.startup" {
  call void @__cxx_global_var_init()
  ret void
}


!llvm.module.flags = !{!0}
!llvm.ident = !{!1}

!0 = !{i32 1, !"wchar_size", i32 4}
!1 = !{!"clang version 10.0.0-4ubuntu1 "}
